target datalayout = "e-m:e-p270:32:32-p271:32:32-p272:64:64-i64:64-i128:128-f80:128-n8:16:32:64-S128"
target triple = "x86_64-pc-linux-gnu"

%"class.cv::tinyxml2::StrPair" = type { i32, ptr, ptr }
%"class.cv::tinyxml2::XMLDocument" = type { %"class.cv::tinyxml2::XMLNode", i8, i8, i32, i32, ptr, ptr, ptr, %"class.cv::tinyxml2::MemPoolT", %"class.cv::tinyxml2::MemPoolT.0", %"class.cv::tinyxml2::MemPoolT.2", %"class.cv::tinyxml2::MemPoolT.4" }
%"class.cv::tinyxml2::XMLNode" = type { ptr, ptr, ptr, %"class.cv::tinyxml2::StrPair", ptr, ptr, ptr, ptr, ptr }
%"class.cv::tinyxml2::MemPoolT" = type { %"class.cv::tinyxml2::MemPool", %"class.cv::tinyxml2::DynArray", ptr, i32, i32, i32, i32 }
%"class.cv::tinyxml2::MemPool" = type { ptr }
%"class.cv::tinyxml2::DynArray" = type { ptr, [10 x ptr], i32, i32 }
%"class.cv::tinyxml2::MemPoolT.0" = type { %"class.cv::tinyxml2::MemPool", %"class.cv::tinyxml2::DynArray.1", ptr, i32, i32, i32, i32 }
%"class.cv::tinyxml2::DynArray.1" = type { ptr, [10 x ptr], i32, i32 }
%"class.cv::tinyxml2::MemPoolT.2" = type { %"class.cv::tinyxml2::MemPool", %"class.cv::tinyxml2::DynArray.3", ptr, i32, i32, i32, i32 }
%"class.cv::tinyxml2::DynArray.3" = type { ptr, [10 x ptr], i32, i32 }
%"class.cv::tinyxml2::MemPoolT.4" = type { %"class.cv::tinyxml2::MemPool", %"class.cv::tinyxml2::DynArray.5", ptr, i32, i32, i32, i32 }
%"class.cv::tinyxml2::DynArray.5" = type { ptr, [10 x ptr], i32, i32 }
%"class.cv::tinyxml2::XMLPrinter" = type { %"class.cv::tinyxml2::XMLVisitor", i8, %"class.cv::tinyxml2::DynArray.6", i8, ptr, i32, i32, i8, i8, [64 x i8], [64 x i8], [6 x i8], %"class.cv::tinyxml2::DynArray.7" }
%"class.cv::tinyxml2::XMLVisitor" = type { ptr }
%"class.cv::tinyxml2::DynArray.6" = type { ptr, [10 x ptr], i32, i32 }
%"class.cv::tinyxml2::DynArray.7" = type <{ ptr, [20 x i8], i32, i32, [4 x i8] }>

@_ZN2cv8tinyxml210XMLPrinterC1EP8_IO_FILEbi = hidden unnamed_addr alias void (ptr, ptr, i1, i32), ptr @_ZN2cv8tinyxml210XMLPrinterC2EP8_IO_FILEbi

; Function Attrs: mustprogress uwtable
define hidden noundef i32 @_ZN2cv8tinyxml211XMLDocument8SaveFileEP8_IO_FILEb(ptr noundef nonnull align 8 dereferenceable(640) %0, ptr noundef %1, i1 noundef zeroext %2) #3 align 2 personality ptr @__gxx_personality_v0 {
  %4 = alloca ptr, align 8
  %5 = alloca ptr, align 8
  %6 = alloca i8, align 1
  %7 = alloca %"class.cv::tinyxml2::XMLPrinter", align 8
  %8 = alloca ptr, align 8
  %9 = alloca i32, align 4
  store ptr %0, ptr %4, align 8, !tbaa !50
  store ptr %1, ptr %5, align 8, !tbaa !182
  %10 = zext i1 %2 to i8
  store i8 %10, ptr %6, align 1, !tbaa !37
  %11 = load ptr, ptr %4, align 8
  call void @llvm.lifetime.start.p0(i64 312, ptr %7) #17
  %12 = load ptr, ptr %5, align 8, !tbaa !182
  %13 = load i8, ptr %6, align 1, !tbaa !37, !range !39, !noundef !40
  %14 = trunc i8 %13 to i1
  call void @_ZN2cv8tinyxml210XMLPrinterC1EP8_IO_FILEbi(ptr noundef nonnull align 8 dereferenceable(312) %7, ptr noundef %12, i1 noundef zeroext %14, i32 noundef 0)
  invoke void @_ZNK2cv8tinyxml211XMLDocument5PrintEPNS0_10XMLPrinterE(ptr noundef nonnull align 8 dereferenceable(640) %11, ptr noundef %7)
          to label %15 unwind label %18

15:                                               ; preds = %3
  %16 = getelementptr inbounds nuw %"class.cv::tinyxml2::XMLDocument", ptr %11, i32 0, i32 3
  %17 = load i32, ptr %16, align 4, !tbaa !129
  call void @_ZN2cv8tinyxml210XMLPrinterD2Ev(ptr noundef nonnull align 8 dereferenceable(312) %7) #17
  call void @llvm.lifetime.end.p0(i64 312, ptr %7) #17
  ret i32 %17

18:                                               ; preds = %3
  %19 = landingpad { ptr, i32 }
          cleanup
  %20 = extractvalue { ptr, i32 } %19, 0
  store ptr %20, ptr %8, align 8
  %21 = extractvalue { ptr, i32 } %19, 1
  store i32 %21, ptr %9, align 4
  call void @_ZN2cv8tinyxml210XMLPrinterD2Ev(ptr noundef nonnull align 8 dereferenceable(312) %7) #17
  call void @llvm.lifetime.end.p0(i64 312, ptr %7) #17
  br label %22

22:                                               ; preds = %18
  %23 = load ptr, ptr %8, align 8
  %24 = load i32, ptr %9, align 4
  %25 = insertvalue { ptr, i32 } poison, ptr %23, 0
  %26 = insertvalue { ptr, i32 } %25, i32 %24, 1
  resume { ptr, i32 } %26
}