; Function Attrs: mustprogress uwtable
define hidden noundef i32 @_ZN2cv8tinyxml211XMLDocument8SaveFileEP8_IO_FILEb(ptr noundef nonnull align 8 dereferenceable(640) %0, ptr noundef %1, i1 noundef zeroext %2) local_unnamed_addr #4 align 2 personality ptr @__gxx_personality_v0 {
  %4 = alloca %"class.cv::tinyxml2::XMLPrinter", align 8
  call void @llvm.lifetime.start.p0(i64 312, ptr nonnull %4) #24
  %5 = zext i1 %2 to i8
  store ptr getelementptr inbounds nuw inrange(-16, 104) (i8, ptr @_ZTVN2cv8tinyxml210XMLPrinterE, i64 16), ptr %4, align 8, !tbaa !39
  %6 = getelementptr inbounds nuw i8, ptr %4, i64 8
  store i8 0, ptr %6, align 8, !tbaa !153
  %7 = getelementptr inbounds nuw i8, ptr %4, i64 16
  %8 = getelementptr inbounds nuw i8, ptr %4, i64 24
  store ptr %8, ptr %7, align 8, !tbaa !160
  %9 = getelementptr inbounds nuw i8, ptr %4, i64 104
  store i32 10, ptr %9, align 8, !tbaa !161
  %10 = getelementptr inbounds nuw i8, ptr %4, i64 108
  store i32 0, ptr %10, align 4, !tbaa !162
  %11 = getelementptr inbounds nuw i8, ptr %4, i64 112
  store i8 1, ptr %11, align 8, !tbaa !163
  %12 = getelementptr inbounds nuw i8, ptr %4, i64 120
  store ptr %1, ptr %12, align 8, !tbaa !164
  %13 = getelementptr inbounds nuw i8, ptr %4, i64 128
  store i32 0, ptr %13, align 8, !tbaa !165
  %14 = getelementptr inbounds nuw i8, ptr %4, i64 132
  store i32 -1, ptr %14, align 4, !tbaa !166
  %15 = getelementptr inbounds nuw i8, ptr %4, i64 136
  store i8 1, ptr %15, align 8, !tbaa !167
  %16 = getelementptr inbounds nuw i8, ptr %4, i64 137
  store i8 %5, ptr %16, align 1, !tbaa !168
  %17 = getelementptr inbounds nuw i8, ptr %4, i64 272
  %18 = getelementptr inbounds nuw i8, ptr %4, i64 280
  store ptr %18, ptr %17, align 8, !tbaa !169
  %19 = getelementptr inbounds nuw i8, ptr %4, i64 300
  store i32 20, ptr %19, align 4, !tbaa !170
  %20 = getelementptr inbounds nuw i8, ptr %4, i64 138
  call void @llvm.memset.p0.i64(ptr noundef nonnull align 2 dereferenceable(128) %20, i8 0, i64 128, i1 false)
  br label %21

21:                                               ; preds = %21, %3
  %indvars.iv.i = phi i64 [ 0, %3 ], [ %indvars.iv.next.i, %21 ]
  %22 = getelementptr inbounds nuw [5 x %"struct.cv::tinyxml2::Entity"], ptr @_ZN2cv8tinyxml2L8entitiesE, i64 0, i64 %indvars.iv.i, i32 2
  %23 = load i8, ptr %22, align 4, !tbaa !23
  %24 = sext i8 %23 to i64
  %25 = getelementptr inbounds [64 x i8], ptr %20, i64 0, i64 %24
  store i8 1, ptr %25, align 1, !tbaa !30
  %indvars.iv.next.i = add nuw nsw i64 %indvars.iv.i, 1
  %exitcond.not.i = icmp eq i64 %indvars.iv.next.i, 5
  br i1 %exitcond.not.i, label %_ZN2cv8tinyxml210XMLPrinterC2EP8_IO_FILEbi.exit, label %21, !llvm.loop !171

_ZN2cv8tinyxml210XMLPrinterC2EP8_IO_FILEbi.exit:  ; preds = %21
  %26 = getelementptr inbounds nuw i8, ptr %4, i64 304
  %27 = getelementptr inbounds nuw i8, ptr %4, i64 240
  store i8 1, ptr %27, align 8, !tbaa !30
  %28 = getelementptr inbounds nuw i8, ptr %4, i64 262
  store i8 1, ptr %28, align 2, !tbaa !30
  %29 = getelementptr inbounds nuw i8, ptr %4, i64 264
  store i8 1, ptr %29, align 8, !tbaa !30
  store i32 1, ptr %26, align 8, !tbaa !172
  store i8 0, ptr %18, align 8, !tbaa !12
  invoke void @_ZNK2cv8tinyxml211XMLDocument5PrintEPNS0_10XMLPrinterE(ptr noundef nonnull align 8 dereferenceable(640) %0, ptr noundef nonnull %4)
          to label %30 unwind label %39

30:                                               ; preds = %_ZN2cv8tinyxml210XMLPrinterC2EP8_IO_FILEbi.exit
  %31 = getelementptr inbounds nuw i8, ptr %0, i64 92
  %32 = load i32, ptr %31, align 4, !tbaa !106
  store ptr getelementptr inbounds nuw inrange(-16, 104) (i8, ptr @_ZTVN2cv8tinyxml210XMLPrinterE, i64 16), ptr %4, align 8, !tbaa !39
  %33 = load ptr, ptr %17, align 8, !tbaa !169
  %.not.i.i = icmp eq ptr %33, %18
  %34 = icmp eq ptr %33, null
  %or.cond.i.i = or i1 %.not.i.i, %34
  br i1 %or.cond.i.i, label %_ZN2cv8tinyxml28DynArrayIcLi20EED2Ev.exit.i, label %35

35:                                               ; preds = %30
  call void @_ZdaPv(ptr noundef nonnull %33) #23
  br label %_ZN2cv8tinyxml28DynArrayIcLi20EED2Ev.exit.i

_ZN2cv8tinyxml28DynArrayIcLi20EED2Ev.exit.i:      ; preds = %35, %30
  %36 = load ptr, ptr %7, align 8, !tbaa !160
  %.not.i1.i = icmp eq ptr %36, %8
  %37 = icmp eq ptr %36, null
  %or.cond.i2.i = or i1 %.not.i1.i, %37
  br i1 %or.cond.i2.i, label %_ZN2cv8tinyxml210XMLPrinterD2Ev.exit, label %38

38:                                               ; preds = %_ZN2cv8tinyxml28DynArrayIcLi20EED2Ev.exit.i
  call void @_ZdaPv(ptr noundef nonnull %36) #23
  br label %_ZN2cv8tinyxml210XMLPrinterD2Ev.exit

_ZN2cv8tinyxml210XMLPrinterD2Ev.exit:             ; preds = %_ZN2cv8tinyxml28DynArrayIcLi20EED2Ev.exit.i, %38
  call void @llvm.lifetime.end.p0(i64 312, ptr nonnull %4) #24
  ret i32 %32

39:                                               ; preds = %_ZN2cv8tinyxml210XMLPrinterC2EP8_IO_FILEbi.exit
  %40 = landingpad { ptr, i32 }
          cleanup
  call void @_ZN2cv8tinyxml210XMLPrinterD2Ev(ptr noundef nonnull align 8 dereferenceable(312) %4) #24
  call void @llvm.lifetime.end.p0(i64 312, ptr nonnull %4) #24
  resume { ptr, i32 } %40
}